; Function Attrs: mustprogress nounwind uwtable
define dso_local noundef i32 @_ZN4node4quic8Endpoint3UDP5StartEv(ptr nocapture noundef nonnull align 8 dereferenceable(24) %this) local_unnamed_addr #3 align 2 {
entry:
  %impl_.i = getelementptr inbounds i8, ptr %this, i64 8
  %0 = load ptr, ptr %impl_.i, align 8
  %cmp.i.not.i = icmp eq ptr %0, null
  br i1 %cmp.i.not.i, label %return, label %lor.lhs.false

lor.lhs.false:                                    ; preds = %entry
  %state_.i = getelementptr inbounds i8, ptr %0, i64 56
  %1 = load i32, ptr %state_.i, align 8
  %2 = add i32 %1, -1
  %spec.select.i = icmp ult i32 %2, 2
  br i1 %spec.select.i, label %return, label %if.end

if.end:                                           ; preds = %lor.lhs.false
  %is_started_ = getelementptr inbounds i8, ptr %this, i64 17
  %3 = load i8, ptr %is_started_, align 1
  %4 = and i8 %3, 1
  %tobool.not = icmp eq i8 %4, 0
  br i1 %tobool.not, label %if.end5, label %return

if.end5:                                          ; preds = %if.end
  %handle_ = getelementptr inbounds i8, ptr %0, i64 88
  %call8 = tail call i32 @uv_udp_recv_start(ptr noundef nonnull %handle_, ptr noundef nonnull @_ZN4node4quic8Endpoint3UDP4Impl7OnAllocEP11uv_handle_smP8uv_buf_t, ptr noundef nonnull @_ZN4node4quic8Endpoint3UDP4Impl9OnReceiveEP8uv_udp_slPK8uv_buf_tPK8sockaddrj) #21
  %cmp = icmp eq i32 %call8, 0
  %frombool = zext i1 %cmp to i8
  store i8 %frombool, ptr %is_started_, align 1
  br label %return

return:                                           ; preds = %if.end, %entry, %lor.lhs.false, %if.end5
  %retval.0 = phi i32 [ %call8, %if.end5 ], [ -9, %lor.lhs.false ], [ -9, %entry ], [ 0, %if.end ]
  ret i32 %retval.0
}